; Function Attrs: mustprogress uwtable
define hidden void @_ZN5ceres8internal26DenseSchurComplementSolverC2ERKNS0_12LinearSolver7OptionsE(ptr noundef nonnull align 8 dereferenceable(264) initializes((8, 48), (56, 60), (64, 72)) %0, ptr noundef nonnull align 8 dereferenceable(128) %1) unnamed_addr #4 align 2 personality ptr @__gxx_personality_v0 {
  tail call void @_ZN5ceres8internal21SchurComplementSolverC2ERKNS0_12LinearSolver7OptionsE(ptr noundef nonnull align 8 dereferenceable(256) %0, ptr noundef nonnull align 8 dereferenceable(128) %1)
  store ptr getelementptr inbounds nuw inrange(-16, 56) (i8, ptr @_ZTVN5ceres8internal26DenseSchurComplementSolverE, i64 16), ptr %0, align 8, !tbaa !16
  %3 = getelementptr inbounds nuw i8, ptr %0, i64 256
  invoke void @_ZN5ceres8internal13DenseCholesky6CreateERKNS0_12LinearSolver7OptionsE(ptr dead_on_unwind nonnull writable sret(%"class.std::unique_ptr.53") align 8 %3, ptr noundef nonnull align 8 dereferenceable(128) %1)
          to label %4 unwind label %5

4:                                                ; preds = %2
  ret void

5:                                                ; preds = %2
  %6 = landingpad { ptr, i32 }
          cleanup
  tail call void @_ZN5ceres8internal21SchurComplementSolverD2Ev(ptr noundef nonnull align 8 dereferenceable(256) %0) #37
  resume { ptr, i32 } %6
}